; Function Attrs: nofree nosync nounwind memory(readwrite, inaccessiblemem: none) uwtable
define internal fastcc ptr @find(ptr noundef %0) unnamed_addr #10 {
  %2 = getelementptr inbounds nuw i8, ptr %0, i64 16
  %3 = load ptr, ptr %2, align 8, !tbaa !3
  %4 = getelementptr inbounds nuw i8, ptr %3, i64 208
  %5 = load ptr, ptr %4, align 8, !tbaa !141
  %.not = icmp eq ptr %5, null
  br i1 %.not, label %11, label %6

6:                                                ; preds = %1
  %.not9 = icmp eq ptr %5, %0
  br i1 %.not9, label %common.ret10, label %7

common.ret10:                                     ; preds = %6, %11, %7
  %common.ret10.op = phi ptr [ %8, %7 ], [ %5, %6 ], [ %0, %11 ]
  ret ptr %common.ret10.op

7:                                                ; preds = %6
  %8 = tail call fastcc ptr @find(ptr noundef nonnull %5)
  %9 = load ptr, ptr %2, align 8, !tbaa !3
  %10 = getelementptr inbounds nuw i8, ptr %9, i64 208
  store ptr %8, ptr %10, align 8, !tbaa !141
  br label %common.ret10

11:                                               ; preds = %1
  store ptr %0, ptr %4, align 8, !tbaa !141
  br label %common.ret10
}